target datalayout = "e-m:e-p270:32:32-p271:32:32-p272:64:64-i64:64-i128:128-f80:128-n8:16:32:64-S128"
target triple = "x86_64-pc-linux-gnu"

%struct.Vec_Int_t_ = type { i32, i32, ptr }

; Function Attrs: nounwind uwtable
define internal i32 @Vec_IntEntry(ptr noundef %0, i32 noundef %1) #0 {
  %3 = alloca ptr, align 8
  %4 = alloca i32, align 4
  store ptr %0, ptr %3, align 8
  store i32 %1, ptr %4, align 4
  %5 = load ptr, ptr %3, align 8
  %6 = getelementptr inbounds %struct.Vec_Int_t_, ptr %5, i32 0, i32 2
  %7 = load ptr, ptr %6, align 8
  %8 = load i32, ptr %4, align 4
  %9 = sext i32 %8 to i64
  %10 = getelementptr inbounds i32, ptr %7, i64 %9
  %11 = load i32, ptr %10, align 4
  ret i32 %11
}

; Function Attrs: nounwind uwtable
define i32 @Gia_ManFindMuxTree_rec(ptr noundef %0, ptr noundef %1, i32 noundef %2, ptr noundef %3, i32 noundef %4) #0 {
  %6 = alloca i32, align 4
  %7 = alloca ptr, align 8
  %8 = alloca ptr, align 8
  %9 = alloca i32, align 4
  %10 = alloca ptr, align 8
  %11 = alloca i32, align 4
  %12 = alloca i32, align 4
  %13 = alloca i32, align 4
  store ptr %0, ptr %7, align 8
  store ptr %1, ptr %8, align 8
  store i32 %2, ptr %9, align 4
  store ptr %3, ptr %10, align 8
  store i32 %4, ptr %11, align 4
  %14 = load i32, ptr %9, align 4
  %15 = add nsw i32 %14, -1
  store i32 %15, ptr %9, align 4
  %16 = icmp eq i32 %14, 0
  br i1 %16, label %17, label %21

17:                                               ; preds = %5
  %18 = load ptr, ptr %10, align 8
  %19 = load i32, ptr %11, align 4
  %20 = call i32 @Vec_IntEntry(ptr noundef %18, i32 noundef %19)
  store i32 %20, ptr %6, align 4
  br label %46

21:                                               ; preds = %5
  %22 = load ptr, ptr %7, align 8
  %23 = load ptr, ptr %8, align 8
  %24 = load i32, ptr %9, align 4
  %25 = load ptr, ptr %10, align 8
  %26 = load i32, ptr %11, align 4
  %27 = call i32 @Gia_ManFindMuxTree_rec(ptr noundef %22, ptr noundef %23, i32 noundef %24, ptr noundef %25, i32 noundef %26)
  store i32 %27, ptr %12, align 4
  %28 = load ptr, ptr %7, align 8
  %29 = load ptr, ptr %8, align 8
  %30 = load i32, ptr %9, align 4
  %31 = load ptr, ptr %10, align 8
  %32 = load i32, ptr %11, align 4
  %33 = load i32, ptr %9, align 4
  %34 = shl i32 1, %33
  %35 = add nsw i32 %32, %34
  %36 = call i32 @Gia_ManFindMuxTree_rec(ptr noundef %28, ptr noundef %29, i32 noundef %30, ptr noundef %31, i32 noundef %35)
  store i32 %36, ptr %13, align 4
  %37 = load ptr, ptr %7, align 8
  %38 = load ptr, ptr %8, align 8
  %39 = load i32, ptr %9, align 4
  %40 = sext i32 %39 to i64
  %41 = getelementptr inbounds i32, ptr %38, i64 %40
  %42 = load i32, ptr %41, align 4
  %43 = load i32, ptr %13, align 4
  %44 = load i32, ptr %12, align 4
  %45 = call i32 @Gia_ManHashMux(ptr noundef %37, i32 noundef %42, i32 noundef %43, i32 noundef %44)
  store i32 %45, ptr %6, align 4
  br label %46

46:                                               ; preds = %21, %17
  %47 = load i32, ptr %6, align 4
  ret i32 %47
}